target datalayout = "e-m:e-p270:32:32-p271:32:32-p272:64:64-i64:64-i128:128-f80:128-n8:16:32:64-S128"
target triple = "x86_64-pc-linux-gnu"

%"class.pybind11::object" = type { %"class.pybind11::handle" }
%"class.pybind11::handle" = type { ptr }
%"class.pybind11::class_" = type { %"class.pybind11::detail::generic_type" }
%"class.pybind11::detail::generic_type" = type { %"class.pybind11::object" }
%"class.pybind11::enum_" = type { %"class.pybind11::class_.1", %"struct.pybind11::detail::enum_base" }
%"class.pybind11::class_.1" = type { %"class.pybind11::detail::generic_type" }
%"struct.pybind11::detail::enum_base" = type { %"class.pybind11::handle", %"class.pybind11::handle" }

@.str = private unnamed_addr constant [6 x i8] c"Dtype\00", align 1
@.str.3 = private unnamed_addr constant [19 x i8] c"Open3D data types.\00", align 1
@.str.4 = private unnamed_addr constant [10 x i8] c"DtypeCode\00", align 1
@.str.5 = private unnamed_addr constant [10 x i8] c"Undefined\00", align 1
@.str.6 = private unnamed_addr constant [5 x i8] c"Bool\00", align 1
@.str.7 = private unnamed_addr constant [4 x i8] c"Int\00", align 1
@.str.8 = private unnamed_addr constant [5 x i8] c"UInt\00", align 1
@.str.9 = private unnamed_addr constant [6 x i8] c"Float\00", align 1
@.str.10 = private unnamed_addr constant [7 x i8] c"Object\00", align 1

; Function Attrs: mustprogress ssp uwtable
define hidden void @_ZN6open3d4core30pybind_core_dtype_declarationsERN8pybind117module_E(ptr noundef nonnull align 8 dereferenceable(8) %0) #4 personality ptr @__gxx_personality_v0 {
  %2 = alloca ptr, align 8
  %3 = alloca %"class.pybind11::class_", align 8
  %4 = alloca %"class.pybind11::handle", align 8
  %5 = alloca %"class.pybind11::enum_", align 8
  %6 = alloca ptr, align 8
  %7 = alloca i32, align 4
  store ptr %0, ptr %2, align 8, !tbaa !135
  call void @llvm.lifetime.start.p0(i64 8, ptr %3) #25
  %8 = load ptr, ptr %2, align 8, !tbaa !135
  call void @llvm.memcpy.p0.p0.i64(ptr align 8 %4, ptr align 8 %8, i64 8, i1 false)
  %9 = getelementptr inbounds nuw %"class.pybind11::handle", ptr %4, i32 0, i32 0
  %10 = load ptr, ptr %9, align 8
  call void @_ZN8pybind116class_IN6open3d4core5DtypeEJSt10shared_ptrIS3_EEEC2IJA19_cEEENS_6handleEPKcDpRKT_(ptr noundef nonnull align 8 dereferenceable(8) %3, ptr %10, ptr noundef @.str, ptr noundef nonnull align 1 dereferenceable(19) @.str.3)
  call void @llvm.lifetime.start.p0(i64 24, ptr %5) #25
  invoke void @_ZN8pybind115enum_IN6open3d4core5Dtype9DtypeCodeEEC2IJEEERKNS_6handleEPKcDpRKT_(ptr noundef nonnull align 8 dereferenceable(24) %5, ptr noundef nonnull align 8 dereferenceable(8) %3, ptr noundef @.str.4)
          to label %11 unwind label %24

11:                                               ; preds = %1
  %12 = invoke noundef nonnull align 8 dereferenceable(24) ptr @_ZN8pybind115enum_IN6open3d4core5Dtype9DtypeCodeEE5valueEPKcS4_S7_(ptr noundef nonnull align 8 dereferenceable(24) %5, ptr noundef @.str.5, i32 noundef 0, ptr noundef null)
          to label %13 unwind label %28

13:                                               ; preds = %11
  %14 = invoke noundef nonnull align 8 dereferenceable(24) ptr @_ZN8pybind115enum_IN6open3d4core5Dtype9DtypeCodeEE5valueEPKcS4_S7_(ptr noundef nonnull align 8 dereferenceable(24) %12, ptr noundef @.str.6, i32 noundef 1, ptr noundef null)
          to label %15 unwind label %28

15:                                               ; preds = %13
  %16 = invoke noundef nonnull align 8 dereferenceable(24) ptr @_ZN8pybind115enum_IN6open3d4core5Dtype9DtypeCodeEE5valueEPKcS4_S7_(ptr noundef nonnull align 8 dereferenceable(24) %14, ptr noundef @.str.7, i32 noundef 2, ptr noundef null)
          to label %17 unwind label %28

17:                                               ; preds = %15
  %18 = invoke noundef nonnull align 8 dereferenceable(24) ptr @_ZN8pybind115enum_IN6open3d4core5Dtype9DtypeCodeEE5valueEPKcS4_S7_(ptr noundef nonnull align 8 dereferenceable(24) %16, ptr noundef @.str.8, i32 noundef 3, ptr noundef null)
          to label %19 unwind label %28

19:                                               ; preds = %17
  %20 = invoke noundef nonnull align 8 dereferenceable(24) ptr @_ZN8pybind115enum_IN6open3d4core5Dtype9DtypeCodeEE5valueEPKcS4_S7_(ptr noundef nonnull align 8 dereferenceable(24) %18, ptr noundef @.str.9, i32 noundef 4, ptr noundef null)
          to label %21 unwind label %28

21:                                               ; preds = %19
  %22 = invoke noundef nonnull align 8 dereferenceable(24) ptr @_ZN8pybind115enum_IN6open3d4core5Dtype9DtypeCodeEE5valueEPKcS4_S7_(ptr noundef nonnull align 8 dereferenceable(24) %20, ptr noundef @.str.10, i32 noundef 5, ptr noundef null)
          to label %23 unwind label %28

23:                                               ; preds = %21
  call void @_ZN8pybind116objectD2Ev(ptr noundef nonnull align 8 dereferenceable(24) %5) #25
  call void @llvm.lifetime.end.p0(i64 24, ptr %5) #25
  call void @_ZN8pybind116objectD2Ev(ptr noundef nonnull align 8 dereferenceable(8) %3) #25
  call void @llvm.lifetime.end.p0(i64 8, ptr %3) #25
  ret void

24:                                               ; preds = %1
  %25 = landingpad { ptr, i32 }
          cleanup
  %26 = extractvalue { ptr, i32 } %25, 0
  store ptr %26, ptr %6, align 8
  %27 = extractvalue { ptr, i32 } %25, 1
  store i32 %27, ptr %7, align 4
  br label %32

28:                                               ; preds = %21, %19, %17, %15, %13, %11
  %29 = landingpad { ptr, i32 }
          cleanup
  %30 = extractvalue { ptr, i32 } %29, 0
  store ptr %30, ptr %6, align 8
  %31 = extractvalue { ptr, i32 } %29, 1
  store i32 %31, ptr %7, align 4
  call void @_ZN8pybind116objectD2Ev(ptr noundef nonnull align 8 dereferenceable(24) %5) #25
  br label %32

32:                                               ; preds = %28, %24
  call void @llvm.lifetime.end.p0(i64 24, ptr %5) #25
  call void @_ZN8pybind116objectD2Ev(ptr noundef nonnull align 8 dereferenceable(8) %3) #25
  call void @llvm.lifetime.end.p0(i64 8, ptr %3) #25
  br label %33

33:                                               ; preds = %32
  %34 = load ptr, ptr %6, align 8
  %35 = load i32, ptr %7, align 4
  %36 = insertvalue { ptr, i32 } poison, ptr %34, 0
  %37 = insertvalue { ptr, i32 } %36, i32 %35, 1
  resume { ptr, i32 } %37
}