; Function Attrs: mustprogress ssp uwtable
define hidden void @_ZN6open3d4core30pybind_core_dtype_declarationsERN8pybind117module_E(ptr noundef nonnull readonly align 8 captures(none) dereferenceable(8) %0) local_unnamed_addr #5 personality ptr @__gxx_personality_v0 {
  %2 = alloca %"class.pybind11::class_", align 8
  %3 = alloca %"class.pybind11::enum_", align 8
  call void @llvm.lifetime.start.p0(i64 8, ptr nonnull %2) #28
  %.sroa.0.0.copyload = load ptr, ptr %0, align 8
  call void @_ZN8pybind116class_IN6open3d4core5DtypeEJSt10shared_ptrIS3_EEEC2IJA19_cEEENS_6handleEPKcDpRKT_(ptr noundef nonnull align 8 dereferenceable(8) %2, ptr %.sroa.0.0.copyload, ptr noundef nonnull @.str, ptr noundef nonnull align 1 dereferenceable(19) @.str.3)
  call void @llvm.lifetime.start.p0(i64 24, ptr nonnull %3) #28
  invoke void @_ZN8pybind115enum_IN6open3d4core5Dtype9DtypeCodeEEC2IJEEERKNS_6handleEPKcDpRKT_(ptr noundef nonnull align 8 dereferenceable(24) %3, ptr noundef nonnull align 8 dereferenceable(8) %2, ptr noundef nonnull @.str.4)
          to label %4 unwind label %39

4:                                                ; preds = %1
  %5 = invoke noundef nonnull align 8 dereferenceable(24) ptr @_ZN8pybind115enum_IN6open3d4core5Dtype9DtypeCodeEE5valueEPKcS4_S7_(ptr noundef nonnull align 8 dereferenceable(24) %3, ptr noundef nonnull @.str.5, i32 noundef 0, ptr noundef null)
          to label %6 unwind label %41

6:                                                ; preds = %4
  %7 = invoke noundef nonnull align 8 dereferenceable(24) ptr @_ZN8pybind115enum_IN6open3d4core5Dtype9DtypeCodeEE5valueEPKcS4_S7_(ptr noundef nonnull align 8 dereferenceable(24) %5, ptr noundef nonnull @.str.6, i32 noundef 1, ptr noundef null)
          to label %8 unwind label %41

8:                                                ; preds = %6
  %9 = invoke noundef nonnull align 8 dereferenceable(24) ptr @_ZN8pybind115enum_IN6open3d4core5Dtype9DtypeCodeEE5valueEPKcS4_S7_(ptr noundef nonnull align 8 dereferenceable(24) %7, ptr noundef nonnull @.str.7, i32 noundef 2, ptr noundef null)
          to label %10 unwind label %41

10:                                               ; preds = %8
  %11 = invoke noundef nonnull align 8 dereferenceable(24) ptr @_ZN8pybind115enum_IN6open3d4core5Dtype9DtypeCodeEE5valueEPKcS4_S7_(ptr noundef nonnull align 8 dereferenceable(24) %9, ptr noundef nonnull @.str.8, i32 noundef 3, ptr noundef null)
          to label %12 unwind label %41

12:                                               ; preds = %10
  %13 = invoke noundef nonnull align 8 dereferenceable(24) ptr @_ZN8pybind115enum_IN6open3d4core5Dtype9DtypeCodeEE5valueEPKcS4_S7_(ptr noundef nonnull align 8 dereferenceable(24) %11, ptr noundef nonnull @.str.9, i32 noundef 4, ptr noundef null)
          to label %14 unwind label %41

14:                                               ; preds = %12
  %15 = invoke noundef nonnull align 8 dereferenceable(24) ptr @_ZN8pybind115enum_IN6open3d4core5Dtype9DtypeCodeEE5valueEPKcS4_S7_(ptr noundef nonnull align 8 dereferenceable(24) %13, ptr noundef nonnull @.str.10, i32 noundef 5, ptr noundef null)
          to label %16 unwind label %41

16:                                               ; preds = %14
  %17 = load ptr, ptr %3, align 8, !tbaa !122
  %.not.i.i.i = icmp eq ptr %17, null
  br i1 %.not.i.i.i, label %_ZN8pybind116objectD2Ev.exit, label %18

18:                                               ; preds = %16
  %19 = load i64, ptr %17, align 8, !tbaa !121
  %20 = and i64 %19, 2147483648
  %.not2.i.i.i = icmp eq i64 %20, 0
  br i1 %.not2.i.i.i, label %21, label %_ZN8pybind116objectD2Ev.exit

21:                                               ; preds = %18
  %22 = add nsw i64 %19, -1
  store i64 %22, ptr %17, align 8, !tbaa !121
  %23 = icmp eq i64 %22, 0
  br i1 %23, label %24, label %_ZN8pybind116objectD2Ev.exit

24:                                               ; preds = %21
  invoke void @_Py_Dealloc(ptr noundef nonnull %17)
          to label %_ZN8pybind116objectD2Ev.exit unwind label %25

25:                                               ; preds = %24
  %26 = landingpad { ptr, i32 }
          catch ptr null
  %27 = extractvalue { ptr, i32 } %26, 0
  call void @__clang_call_terminate(ptr %27) #29
  unreachable

_ZN8pybind116objectD2Ev.exit:                     ; preds = %16, %18, %21, %24
  call void @llvm.lifetime.end.p0(i64 24, ptr nonnull %3) #28
  %28 = load ptr, ptr %2, align 8, !tbaa !122
  %.not.i.i.i4 = icmp eq ptr %28, null
  br i1 %.not.i.i.i4, label %_ZN8pybind116objectD2Ev.exit6, label %29

29:                                               ; preds = %_ZN8pybind116objectD2Ev.exit
  %30 = load i64, ptr %28, align 8, !tbaa !121
  %31 = and i64 %30, 2147483648
  %.not2.i.i.i5 = icmp eq i64 %31, 0
  br i1 %.not2.i.i.i5, label %32, label %_ZN8pybind116objectD2Ev.exit6

32:                                               ; preds = %29
  %33 = add nsw i64 %30, -1
  store i64 %33, ptr %28, align 8, !tbaa !121
  %34 = icmp eq i64 %33, 0
  br i1 %34, label %35, label %_ZN8pybind116objectD2Ev.exit6

35:                                               ; preds = %32
  invoke void @_Py_Dealloc(ptr noundef nonnull %28)
          to label %_ZN8pybind116objectD2Ev.exit6 unwind label %36

36:                                               ; preds = %35
  %37 = landingpad { ptr, i32 }
          catch ptr null
  %38 = extractvalue { ptr, i32 } %37, 0
  call void @__clang_call_terminate(ptr %38) #29
  unreachable

_ZN8pybind116objectD2Ev.exit6:                    ; preds = %_ZN8pybind116objectD2Ev.exit, %29, %32, %35
  call void @llvm.lifetime.end.p0(i64 8, ptr nonnull %2) #28
  ret void

39:                                               ; preds = %1
  %40 = landingpad { ptr, i32 }
          cleanup
  br label %43

41:                                               ; preds = %14, %12, %10, %8, %6, %4
  %42 = landingpad { ptr, i32 }
          cleanup
  call void @_ZN8pybind116objectD2Ev(ptr noundef nonnull align 8 dereferenceable(24) %3) #28
  br label %43

43:                                               ; preds = %41, %39
  %.pn = phi { ptr, i32 } [ %42, %41 ], [ %40, %39 ]
  call void @llvm.lifetime.end.p0(i64 24, ptr nonnull %3) #28
  call void @_ZN8pybind116objectD2Ev(ptr noundef nonnull align 8 dereferenceable(8) %2) #28
  call void @llvm.lifetime.end.p0(i64 8, ptr nonnull %2) #28
  resume { ptr, i32 } %.pn
}